; ModuleID = '42/289.c'
source_filename = "42/289.c"
target datalayout = "e-m:e-p270:32:32-p271:32:32-p272:64:64-i64:64-f80:128-n8:16:32:64-S128"
target triple = "x86_64-pc-linux-gnu"

@.str = private unnamed_addr constant [4 x i8] c"%d\0A\00", align 1
@.str.1 = private unnamed_addr constant [4 x i8] c"%d \00", align 1
@.str.2 = private unnamed_addr constant [2 x i8] c"\0A\00", align 1
@.str.3 = private unnamed_addr constant [3 x i8] c"%d\00", align 1
@.str.4 = private unnamed_addr constant [4 x i8] c" %d\00", align 1

; Function Attrs: noinline nounwind uwtable
define dso_local void @main() #0 {
  %1 = alloca i32, align 4
  %2 = alloca i32, align 4
  %3 = alloca i32, align 4
  %4 = alloca i32, align 4
  %5 = alloca [100000 x i32], align 16
  %6 = call i32 (i8*, ...) @__isoc99_scanf(i8* getelementptr inbounds ([4 x i8], [4 x i8]* @.str, i64 0, i64 0), i32* %3)
  store i32 0, i32* %1, align 4
  br label %7

7:                                                ; preds = %16, %0
  %8 = load i32, i32* %1, align 4
  %9 = load i32, i32* %3, align 4
  %10 = icmp slt i32 %8, %9
  br i1 %10, label %11, label %19

11:                                               ; preds = %7
  %12 = load i32, i32* %1, align 4
  %13 = sext i32 %12 to i64
  %14 = getelementptr inbounds [100000 x i32], [100000 x i32]* %5, i64 0, i64 %13
  %15 = call i32 (i8*, ...) @__isoc99_scanf(i8* getelementptr inbounds ([4 x i8], [4 x i8]* @.str.1, i64 0, i64 0), i32* %14)
  br label %16

16:                                               ; preds = %11
  %17 = load i32, i32* %1, align 4
  %18 = add nsw i32 %17, 1
  store i32 %18, i32* %1, align 4
  br label %7

19:                                               ; preds = %7
  %20 = call i32 (i8*, ...) @printf(i8* getelementptr inbounds ([2 x i8], [2 x i8]* @.str.2, i64 0, i64 0))
  %21 = call i32 (i8*, ...) @__isoc99_scanf(i8* getelementptr inbounds ([4 x i8], [4 x i8]* @.str, i64 0, i64 0), i32* %4)
  store i32 0, i32* %2, align 4
  br label %22

22:                                               ; preds = %30, %19
  %23 = load i32, i32* %2, align 4
  %24 = sext i32 %23 to i64
  %25 = getelementptr inbounds [100000 x i32], [100000 x i32]* %5, i64 0, i64 %24
  %26 = load i32, i32* %25, align 4
  %27 = load i32, i32* %4, align 4
  %28 = icmp eq i32 %26, %27
  br i1 %28, label %29, label %33

29:                                               ; preds = %22
  br label %30

30:                                               ; preds = %29
  %31 = load i32, i32* %2, align 4
  %32 = add nsw i32 %31, 1
  store i32 %32, i32* %2, align 4
  br label %22

33:                                               ; preds = %22
  %34 = load i32, i32* %2, align 4
  %35 = sext i32 %34 to i64
  %36 = getelementptr inbounds [100000 x i32], [100000 x i32]* %5, i64 0, i64 %35
  %37 = load i32, i32* %36, align 4
  %38 = call i32 (i8*, ...) @printf(i8* getelementptr inbounds ([3 x i8], [3 x i8]* @.str.3, i64 0, i64 0), i32 %37)
  %39 = load i32, i32* %2, align 4
  %40 = add nsw i32 %39, 1
  store i32 %40, i32* %2, align 4
  br label %41

41:                                               ; preds = %59, %33
  %42 = load i32, i32* %2, align 4
  %43 = load i32, i32* %3, align 4
  %44 = icmp slt i32 %42, %43
  br i1 %44, label %45, label %62

45:                                               ; preds = %41
  %46 = load i32, i32* %2, align 4
  %47 = sext i32 %46 to i64
  %48 = getelementptr inbounds [100000 x i32], [100000 x i32]* %5, i64 0, i64 %47
  %49 = load i32, i32* %48, align 4
  %50 = load i32, i32* %4, align 4
  %51 = icmp ne i32 %49, %50
  br i1 %51, label %52, label %58

52:                                               ; preds = %45
  %53 = load i32, i32* %2, align 4
  %54 = sext i32 %53 to i64
  %55 = getelementptr inbounds [100000 x i32], [100000 x i32]* %5, i64 0, i64 %54
  %56 = load i32, i32* %55, align 4
  %57 = call i32 (i8*, ...) @printf(i8* getelementptr inbounds ([4 x i8], [4 x i8]* @.str.4, i64 0, i64 0), i32 %56)
  br label %58

58:                                               ; preds = %52, %45
  br label %59

59:                                               ; preds = %58
  %60 = load i32, i32* %2, align 4
  %61 = add nsw i32 %60, 1
  store i32 %61, i32* %2, align 4
  br label %41

62:                                               ; preds = %41
  ret void
}

declare dso_local i32 @__isoc99_scanf(i8*, ...) #1

declare dso_local i32 @printf(i8*, ...) #1


!llvm.module.flags = !{!0}
!llvm.ident = !{!1}

!0 = !{i32 1, !"wchar_size", i32 4}
!1 = !{!"clang version 10.0.0-4ubuntu1 "}
