; ModuleID = 'source-C-CXX/41/289.c'
source_filename = "source-C-CXX/41/289.c"
target datalayout = "e-m:e-p270:32:32-p271:32:32-p272:64:64-i64:64-f80:128-n8:16:32:64-S128"
target triple = "x86_64-pc-linux-gnu"

@.str = private unnamed_addr constant [4 x i8] c"%d\0A\00", align 1
@.str.1 = private unnamed_addr constant [4 x i8] c"%d \00", align 1
@.str.3 = private unnamed_addr constant [3 x i8] c"%d\00", align 1
@.str.4 = private unnamed_addr constant [4 x i8] c" %d\00", align 1

; Function Attrs: nofree nounwind sspstrong uwtable
define dso_local void @main() local_unnamed_addr #0 {
  %1 = alloca i32, align 4
  %2 = alloca i32, align 4
  %3 = alloca [100000 x i32], align 16
  %4 = bitcast i32* %1 to i8*
  call void @llvm.lifetime.start.p0i8(i64 4, i8* nonnull %4) #4
  %5 = bitcast i32* %2 to i8*
  call void @llvm.lifetime.start.p0i8(i64 4, i8* nonnull %5) #4
  %6 = bitcast [100000 x i32]* %3 to i8*
  call void @llvm.lifetime.start.p0i8(i64 400000, i8* nonnull %6) #4
  %7 = call i32 (i8*, ...) @__isoc99_scanf(i8* getelementptr inbounds ([4 x i8], [4 x i8]* @.str, i64 0, i64 0), i32* nonnull %1)
  %8 = load i32, i32* %1, align 4, !tbaa !5
  %9 = icmp sgt i32 %8, 0
  br i1 %9, label %10, label %18

10:                                               ; preds = %0, %10
  %11 = phi i64 [ %14, %10 ], [ 0, %0 ]
  %12 = getelementptr inbounds [100000 x i32], [100000 x i32]* %3, i64 0, i64 %11
  %13 = call i32 (i8*, ...) @__isoc99_scanf(i8* getelementptr inbounds ([4 x i8], [4 x i8]* @.str.1, i64 0, i64 0), i32* nonnull %12)
  %14 = add nuw nsw i64 %11, 1
  %15 = load i32, i32* %1, align 4, !tbaa !5
  %16 = sext i32 %15 to i64
  %17 = icmp slt i64 %14, %16
  br i1 %17, label %10, label %18, !llvm.loop !9

18:                                               ; preds = %10, %0
  %19 = call i32 @putchar(i32 10)
  %20 = call i32 (i8*, ...) @__isoc99_scanf(i8* getelementptr inbounds ([4 x i8], [4 x i8]* @.str, i64 0, i64 0), i32* nonnull %2)
  %21 = load i32, i32* %2, align 4, !tbaa !5
  br label %22

22:                                               ; preds = %22, %18
  %23 = phi i64 [ %27, %22 ], [ 0, %18 ]
  %24 = getelementptr inbounds [100000 x i32], [100000 x i32]* %3, i64 0, i64 %23
  %25 = load i32, i32* %24, align 4, !tbaa !5
  %26 = icmp eq i32 %25, %21
  %27 = add nuw i64 %23, 1
  br i1 %26, label %22, label %28, !llvm.loop !11

28:                                               ; preds = %22
  %29 = trunc i64 %23 to i32
  %30 = call i32 (i8*, ...) @printf(i8* nonnull dereferenceable(1) getelementptr inbounds ([3 x i8], [3 x i8]* @.str.3, i64 0, i64 0), i32 %25)
  %31 = add i32 %29, 1
  %32 = load i32, i32* %1, align 4, !tbaa !5
  %33 = icmp slt i32 %31, %32
  br i1 %33, label %34, label %51

34:                                               ; preds = %28
  %35 = zext i32 %31 to i64
  br label %36

36:                                               ; preds = %34, %46
  %37 = phi i32 [ %32, %34 ], [ %47, %46 ]
  %38 = phi i64 [ %35, %34 ], [ %48, %46 ]
  %39 = getelementptr inbounds [100000 x i32], [100000 x i32]* %3, i64 0, i64 %38
  %40 = load i32, i32* %39, align 4, !tbaa !5
  %41 = load i32, i32* %2, align 4, !tbaa !5
  %42 = icmp eq i32 %40, %41
  br i1 %42, label %46, label %43

43:                                               ; preds = %36
  %44 = call i32 (i8*, ...) @printf(i8* nonnull dereferenceable(1) getelementptr inbounds ([4 x i8], [4 x i8]* @.str.4, i64 0, i64 0), i32 %40)
  %45 = load i32, i32* %1, align 4, !tbaa !5
  br label %46

46:                                               ; preds = %36, %43
  %47 = phi i32 [ %37, %36 ], [ %45, %43 ]
  %48 = add nuw nsw i64 %38, 1
  %49 = trunc i64 %48 to i32
  %50 = icmp sgt i32 %47, %49
  br i1 %50, label %36, label %51, !llvm.loop !12

51:                                               ; preds = %46, %28
  call void @llvm.lifetime.end.p0i8(i64 400000, i8* nonnull %6) #4
  call void @llvm.lifetime.end.p0i8(i64 4, i8* nonnull %5) #4
  call void @llvm.lifetime.end.p0i8(i64 4, i8* nonnull %4) #4
  ret void
}

; Function Attrs: argmemonly mustprogress nofree nosync nounwind willreturn
declare void @llvm.lifetime.start.p0i8(i64 immarg, i8* nocapture) #1

; Function Attrs: nofree nounwind
declare noundef i32 @__isoc99_scanf(i8* nocapture noundef readonly, ...) local_unnamed_addr #2

; Function Attrs: nofree nounwind
declare noundef i32 @printf(i8* nocapture noundef readonly, ...) local_unnamed_addr #2

; Function Attrs: argmemonly mustprogress nofree nosync nounwind willreturn
declare void @llvm.lifetime.end.p0i8(i64 immarg, i8* nocapture) #1

; Function Attrs: nofree nounwind
declare noundef i32 @putchar(i32 noundef) local_unnamed_addr #3


!llvm.module.flags = !{!0, !1, !2, !3}
!llvm.ident = !{!4}

!0 = !{i32 1, !"wchar_size", i32 4}
!1 = !{i32 7, !"PIC Level", i32 2}
!2 = !{i32 7, !"PIE Level", i32 2}
!3 = !{i32 7, !"uwtable", i32 1}
!4 = !{!"clang version 13.0.0"}
!5 = !{!6, !6, i64 0}
!6 = !{!"int", !7, i64 0}
!7 = !{!"omnipotent char", !8, i64 0}
!8 = !{!"Simple C/C++ TBAA"}
!9 = distinct !{!9, !10}
!10 = !{!"llvm.loop.mustprogress"}
!11 = distinct !{!11, !10}
!12 = distinct !{!12, !10}
